ccopy_reg
_reconstructor
p0
(cpre_process
MyPreprocessor
p1
c__builtin__
object
p2
Ntp3
Rp4
(dp5
S'stopwords'
p6
(lp7
S'newlin'
p8
aS'newline'
p9
aS'punctuation'
p10
aS'!'
p11
aS'"'
p12
aS'#'
p13
aS'$'
p14
aS'%'
p15
aS'&'
p16
aS"'"
p17
aS'('
p18
aS')'
p19
aS'*'
p20
aS'+'
p21
aS'-'
p22
aS'/'
p23
aS';'
p24
aS'<'
p25
aS'='
p26
aS'>'
p27
aS'@'
p28
aS'['
p29
aS'\\'
p30
aS']'
p31
aS'^'
p32
aS'_'
p33
aS'`'
p34
aS'{'
p35
aS'|'
p36
aS'}'
p37
aS'~'
p38
asS'add_synonyms'
p39
I00
sS'stemmer'
p40
Nsb.