ccopy_reg
_reconstructor
p0
(cpre_process
MyPreprocessor
p1
c__builtin__
object
p2
Ntp3
Rp4
(dp5
S'stopwords'
p6
(lp7
sS'add_synonyms'
p8
I00
sS'stemmer'
p9
g0
(cnltk.stem.snowball
DutchStemmer
p10
g2
Ntp11
Rp12
(dp13
g6
c__builtin__
set
p14
((lp15
tp16
Rp17
sbsb.